Certificate:
    Data:
        Version: 1 (0x0)
        Serial Number: 4096 (0x1000)
        Signature Algorithm: sha256WithRSAEncryption
        Issuer: C=IN, ST=Uttar Pradesh, L=Prayagraj, O=MyOrg, CN=My Root CA
        Validity
            Not Before: Feb 11 04:08:34 2025 GMT
            Not After : Feb 13 04:08:34 2025 GMT
        Subject: C=IN, ST=UP, O=IIITL, CN=cseDept
        Subject Public Key Info:
            Public Key Algorithm: rsaEncryption
                Public-Key: (2048 bit)
                Modulus:
                    00:8d:4e:ee:3f:48:b1:1a:f0:58:17:20:7e:76:49:
                    ba:c2:1c:34:f1:52:07:1f:26:b5:e7:24:95:2d:ce:
                    c3:25:df:a5:37:fe:7c:43:df:f8:f0:35:27:0a:f8:
                    62:8e:38:d4:32:8f:60:f1:62:6a:65:6c:f9:f4:8e:
                    de:d7:3f:ef:40:5e:e3:64:49:02:5f:92:d7:a4:a1:
                    f3:31:5c:8b:fc:0b:1f:9d:68:34:0b:e1:e5:e4:fd:
                    66:a8:0a:fd:85:e8:60:a0:0b:a3:98:b6:81:50:9f:
                    74:84:24:f9:43:09:c0:6e:3b:df:fe:b5:9f:fa:e0:
                    02:5e:6d:ed:7d:69:df:df:1d:cf:6f:5c:ed:46:67:
                    9d:7b:96:1e:2b:a2:b0:63:a6:60:54:7e:aa:65:76:
                    b5:a8:a6:9f:f5:51:05:66:eb:59:6a:f4:bd:3d:70:
                    59:bc:b8:3a:9c:45:76:a6:36:26:95:a6:6f:07:18:
                    66:6b:0f:35:ab:f4:d9:69:cc:49:69:8b:56:92:57:
                    ab:a9:bc:f9:22:f2:ff:c5:9b:3d:49:55:0b:d4:64:
                    01:6d:39:7a:2c:0a:6e:6a:e4:b9:d4:85:0e:3d:3c:
                    fb:99:99:06:e5:34:e0:86:70:e5:fa:35:1d:3b:a0:
                    fd:56:e8:0d:b2:72:d5:5c:93:30:ca:2e:ba:3f:95:
                    1c:05
                Exponent: 65537 (0x10001)
    Signature Algorithm: sha256WithRSAEncryption
    Signature Value:
        76:87:a4:7e:05:a5:29:02:49:06:41:a3:42:5a:b1:9f:c2:94:
        ab:b2:74:68:05:30:d1:63:fc:fb:96:11:57:2e:d9:54:71:ad:
        36:f7:5b:0e:ed:1d:f4:da:e9:72:82:fe:b4:15:d4:bd:d4:92:
        b0:2c:b6:a3:20:bd:4e:49:40:6e:c0:2a:87:20:70:c8:d2:85:
        76:7b:76:f5:bc:42:f8:d0:c8:67:6b:5a:00:72:29:9b:f5:db:
        08:d7:d7:93:dd:cd:2c:68:98:4f:e5:2a:fc:65:5a:f4:75:aa:
        2e:7e:a9:5f:8c:d3:1f:34:f7:68:d7:90:df:e9:02:8e:71:47:
        1e:ff:5f:6f:27:5b:64:57:28:b9:d7:6e:f5:00:1d:a0:2c:4f:
        ba:7f:27:ee:c6:ab:c6:61:d1:d4:b3:32:5e:85:27:4a:57:07:
        92:4e:b1:48:8e:da:01:b5:ce:fc:03:c2:2a:69:c6:10:44:53:
        64:68:b3:56:8c:51:4e:4a:01:8f:88:8e:fc:e5:fc:41:a6:47:
        08:3e:ec:bc:dc:95:b0:c8:57:a4:86:9f:bc:19:20:2d:41:e1:
        d0:cb:cd:da:c1:02:4d:4e:99:95:ab:e8:38:8a:cb:ef:b0:f2:
        53:2b:e7:8e:9e:33:c5:37:96:c5:af:6b:3e:b9:db:f6:71:8e:
        68:ce:56:a8:a3:f3:2a:1a:a6:27:fb:e4:ac:49:50:f5:b1:6a:
        62:ea:21:ca:c7:9a:b1:b4:9f:c9:3d:d0:53:e7:65:38:ad:52:
        0e:88:aa:b6:1e:30:30:66:45:b8:28:cf:51:1d:8d:bc:58:06:
        fa:57:c2:1f:e9:da:bb:19:63:2d:b0:83:32:50:c6:37:82:23:
        ba:a6:b7:cb:dc:b4:b1:00:e4:48:30:6f:19:88:7e:8a:d5:20:
        99:3e:aa:49:b7:16:ab:a1:5c:6d:2d:30:54:ac:3c:8c:49:ca:
        19:e0:12:7c:3d:cb:67:84:84:14:45:75:57:83:f7:22:56:6b:
        35:52:d6:ed:b7:f2:e6:33:bb:d9:0f:15:36:f1:1f:bd:b8:38:
        54:50:89:18:dc:f6:bd:d0:12:7e:01:e9:7c:bd:f1:51:6b:60:
        fe:f5:52:c4:9c:ff:6a:63:10:a6:83:71:27:9d:ad:04:7c:9e:
        b8:7c:5d:90:d2:e3:5b:6b:65:41:9f:7f:d2:8c:20:1d:5a:9e:
        9c:dd:4d:13:1c:fd:43:58:8f:c5:8a:81:44:04:75:30:73:35:
        00:44:e8:01:29:c6:e3:22:40:93:c4:bb:f7:9c:2d:6e:09:5e:
        6f:47:d5:82:e3:7a:c1:bd:4f:24:bc:d1:73:ba:19:95:67:b5:
        7e:90:70:af:68:40:82:84
-----BEGIN CERTIFICATE-----
MIIEDzCCAfcCAhAAMA0GCSqGSIb3DQEBCwUAMF4xCzAJBgNVBAYTAklOMRYwFAYD
VQQIDA1VdHRhciBQcmFkZXNoMRIwEAYDVQQHDAlQcmF5YWdyYWoxDjAMBgNVBAoM
BU15T3JnMRMwEQYDVQQDDApNeSBSb290IENBMB4XDTI1MDIxMTA0MDgzNFoXDTI1
MDIxMzA0MDgzNFowPDELMAkGA1UEBhMCSU4xCzAJBgNVBAgMAlVQMQ4wDAYDVQQK
DAVJSUlUTDEQMA4GA1UEAwwHY3NlRGVwdDCCASIwDQYJKoZIhvcNAQEBBQADggEP
ADCCAQoCggEBAI1O7j9IsRrwWBcgfnZJusIcNPFSBx8mtecklS3OwyXfpTf+fEPf
+PA1Jwr4Yo441DKPYPFiamVs+fSO3tc/70Be42RJAl+S16Sh8zFci/wLH51oNAvh
5eT9ZqgK/YXoYKALo5i2gVCfdIQk+UMJwG473/61n/rgAl5t7X1p398dz29c7UZn
nXuWHiuisGOmYFR+qmV2taimn/VRBWbrWWr0vT1wWby4OpxFdqY2JpWmbwcYZmsP
Nav02WnMSWmLVpJXq6m8+SLy/8WbPUlVC9RkAW05eiwKbmrkudSFDj08+5mZBuU0
4IZw5fo1HTug/VboDbJy1VyTMMouuj+VHAUCAwEAATANBgkqhkiG9w0BAQsFAAOC
AgEAdoekfgWlKQJJBkGjQlqxn8KUq7J0aAUw0WP8+5YRVy7ZVHGtNvdbDu0d9Nrp
coL+tBXUvdSSsCy2oyC9TklAbsAqhyBwyNKFdnt29bxC+NDIZ2taAHIpm/XbCNfX
k93NLGiYT+Uq/GVa9HWqLn6pX4zTHzT3aNeQ3+kCjnFHHv9fbydbZFcouddu9QAd
oCxPun8n7sarxmHR1LMyXoUnSlcHkk6xSI7aAbXO/APCKmnGEERTZGizVoxRTkoB
j4iO/OX8QaZHCD7svNyVsMhXpIafvBkgLUHh0MvN2sECTU6ZlavoOIrL77DyUyvn
jp4zxTeWxa9rPrnb9nGOaM5WqKPzKhqmJ/vkrElQ9bFqYuohyseasbSfyT3QU+dl
OK1SDoiqth4wMGZFuCjPUR2NvFgG+lfCH+nauxljLbCDMlDGN4Ijuqa3y9y0sQDk
SDBvGYh+itUgmT6qSbcWq6FcbS0wVKw8jEnKGeASfD3LZ4SEFEV1V4P3IlZrNVLW
7bfy5jO72Q8VNvEfvbg4VFCJGNz2vdASfgHpfL3xUWtg/vVSxJz/amMQpoNxJ52t
BHyeuHxdkNLjW2tlQZ9/0owgHVqenN1NExz9Q1iPxYqBRAR1MHM1AEToASnG4yJA
k8S795wtbgleb0fVguN6wb1PJLzRc7oZlWe1fpBwr2hAgoQ=
-----END CERTIFICATE-----
